; Function Attrs: mustprogress uwtable
define i32 @u_printf_u_77(ptr noundef %0, ...) local_unnamed_addr #0 personality ptr @__gxx_personality_v0 {
  %2 = alloca i32, align 4
  %3 = alloca [1 x %struct.__va_list_tag], align 16
  call void @llvm.lifetime.start.p0(i64 24, ptr nonnull %3) #6
  call void @llvm.va_start.p0(ptr nonnull %3)
  %4 = load atomic i32, ptr @_ZL15gStdOutInitOnce acquire, align 4
  %5 = icmp eq i32 %4, 2
  br i1 %5, label %u_get_stdout_77.exit, label %6

6:                                                ; preds = %1
  %7 = call noundef signext i8 @_ZN6icu_7720umtx_initImplPreInitERNS_9UInitOnceE(ptr noundef nonnull align 4 dereferenceable(8) @_ZL15gStdOutInitOnce)
  %.not.i.i = icmp eq i8 %7, 0
  br i1 %.not.i.i, label %u_get_stdout_77.exit, label %8

8:                                                ; preds = %6
  %9 = load ptr, ptr @stdout, align 8, !tbaa !3
  %10 = call ptr @u_finit_77(ptr noundef %9, ptr noundef null, ptr noundef null)
  store ptr %10, ptr @_ZL7gStdOut, align 8, !tbaa !8
  call void @ucln_io_registerCleanup_77(i32 noundef 1, ptr noundef nonnull @_ZL15uprintf_cleanupv)
  call void @_ZN6icu_7721umtx_initImplPostInitERNS_9UInitOnceE(ptr noundef nonnull align 4 dereferenceable(8) @_ZL15gStdOutInitOnce)
  br label %u_get_stdout_77.exit

u_get_stdout_77.exit:                             ; preds = %1, %6, %8
  %11 = load ptr, ptr @_ZL7gStdOut, align 8, !tbaa !8
  call void @llvm.lifetime.start.p0(i64 4, ptr nonnull %2) #6
  store i32 0, ptr %2, align 4, !tbaa !10
  %12 = getelementptr inbounds nuw i8, ptr %11, i64 48
  %13 = call i32 @u_printf_parse_77(ptr noundef nonnull @_ZL16g_stream_handler, ptr noundef %0, ptr noundef %11, ptr noundef null, ptr noundef nonnull %12, ptr noundef nonnull %2, ptr noundef nonnull %3)
  %14 = load i32, ptr %2, align 4, !tbaa !10
  call void @llvm.lifetime.end.p0(i64 4, ptr nonnull %2) #6
  call void @llvm.va_end.p0(ptr nonnull %3)
  call void @llvm.lifetime.end.p0(i64 24, ptr nonnull %3) #6
  ret i32 %14
}